
sdram.elf:     file format elf32-littlearm

Disassembly of section .text:

30000000 <__start>:
30000000:	e3a00453 	mov	r0, #1392508928	; 0x53000000
30000004:	e3a01000 	mov	r1, #0	; 0x0
30000008:	e5801000 	str	r1, [r0]
3000000c:	e3a00313 	mov	r0, #1275068416	; 0x4c000000
30000010:	e3e01000 	mvn	r1, #0	; 0x0
30000014:	e5801000 	str	r1, [r0]
30000018:	e59f005c 	ldr	r0, [pc, #92]	; 3000007c <.text+0x7c>
3000001c:	e3a01005 	mov	r1, #5	; 0x5
30000020:	e5801000 	str	r1, [r0]
30000024:	ee110f10 	mrc	15, 0, r0, cr1, cr0, {0}
30000028:	e3800103 	orr	r0, r0, #-1073741824	; 0xc0000000
3000002c:	ee010f10 	mcr	15, 0, r0, cr1, cr0, {0}
30000030:	e59f0048 	ldr	r0, [pc, #72]	; 30000080 <.text+0x80>
30000034:	e59f1048 	ldr	r1, [pc, #72]	; 30000084 <.text+0x84>
30000038:	e5801000 	str	r1, [r0]
3000003c:	e3a01000 	mov	r1, #0	; 0x0
30000040:	e5910000 	ldr	r0, [r1]
30000044:	e5811000 	str	r1, [r1]
30000048:	e5912000 	ldr	r2, [r1]
3000004c:	e1510002 	cmp	r1, r2
30000050:	e59fd030 	ldr	sp, [pc, #48]	; 30000088 <.text+0x88>
30000054:	03a0da01 	moveq	sp, #4096	; 0x1000
30000058:	05810000 	streq	r0, [r1]
3000005c:	e28f0004 	add	r0, pc, #4	; 0x4
30000060:	e2800001 	add	r0, r0, #1	; 0x1
30000064:	e12fff10 	bx	r0

30000068 <__thumb_func>:
30000068:	f9aaf000 	bl	300003c0 <sdram_init>
3000006c:	fa2ef000 	bl	300004cc <copy2sdram>
30000070:	fa54f000 	bl	3000051c <clean_bss>
30000074:	4805      	ldr	r0, [pc, #20]	(3000008c <.text+0x8c>)
30000076:	4687      	mov	pc, r0

30000078 <halt>:
30000078:	e7fe      	b	30000078 <halt>
3000007a:	0000      	lsl	r0, r0, #0
3000007c:	0014      	lsl	r4, r2, #0
3000007e:	4c00      	ldr	r4, [pc, #0]	(30000080 <.text+0x80>)
30000080:	0004      	lsl	r4, r0, #0
30000082:	4c00      	ldr	r4, [pc, #0]	(30000084 <.text+0x84>)
30000084:	c011      	stmia	r0!,{r0, r4}
30000086:	0005      	lsl	r5, r0, #0
30000088:	1000      	asr	r0, r0, #0
3000008a:	4000      	and	r0, r0
3000008c:	055d      	lsl	r5, r3, #21
3000008e:	3000      	add	r0, #0

30000090 <led_test>:
30000090:	b580      	push	{r7, lr}
30000092:	466f      	mov	r7, sp
30000094:	b082      	sub	sp, #8
30000096:	1f3a      	sub	r2, r7, #4
30000098:	2300      	mov	r3, #0
3000009a:	6013      	str	r3, [r2, #0]
3000009c:	491c      	ldr	r1, [pc, #112]	(30000110 <.text+0x110>)
3000009e:	4b1c      	ldr	r3, [pc, #112]	(30000110 <.text+0x110>)
300000a0:	681a      	ldr	r2, [r3, #0]
300000a2:	4b1c      	ldr	r3, [pc, #112]	(30000114 <.text+0x114>)
300000a4:	4013      	and	r3, r2
300000a6:	600b      	str	r3, [r1, #0]
300000a8:	4919      	ldr	r1, [pc, #100]	(30000110 <.text+0x110>)
300000aa:	4b19      	ldr	r3, [pc, #100]	(30000110 <.text+0x110>)
300000ac:	681a      	ldr	r2, [r3, #0]
300000ae:	23a8      	mov	r3, #168
300000b0:	015b      	lsl	r3, r3, #5
300000b2:	4313      	orr	r3, r2
300000b4:	600b      	str	r3, [r1, #0]
300000b6:	1c3a      	mov	r2, r7		(add r2, r7, #0)
300000b8:	3a08      	sub	r2, #8
300000ba:	1f3b      	sub	r3, r7, #4
300000bc:	681b      	ldr	r3, [r3, #0]
300000be:	43db      	mvn	r3, r3
300000c0:	6013      	str	r3, [r2, #0]
300000c2:	1c39      	mov	r1, r7		(add r1, r7, #0)
300000c4:	3908      	sub	r1, #8
300000c6:	1c3b      	mov	r3, r7		(add r3, r7, #0)
300000c8:	3b08      	sub	r3, #8
300000ca:	681a      	ldr	r2, [r3, #0]
300000cc:	2307      	mov	r3, #7
300000ce:	4013      	and	r3, r2
300000d0:	600b      	str	r3, [r1, #0]
300000d2:	4911      	ldr	r1, [pc, #68]	(30000118 <.text+0x118>)
300000d4:	4b10      	ldr	r3, [pc, #64]	(30000118 <.text+0x118>)
300000d6:	681a      	ldr	r2, [r3, #0]
300000d8:	2370      	mov	r3, #112
300000da:	439a      	bic	r2, r3
300000dc:	1c13      	mov	r3, r2		(add r3, r2, #0)
300000de:	600b      	str	r3, [r1, #0]
300000e0:	480d      	ldr	r0, [pc, #52]	(30000118 <.text+0x118>)
300000e2:	490d      	ldr	r1, [pc, #52]	(30000118 <.text+0x118>)
300000e4:	1c3b      	mov	r3, r7		(add r3, r7, #0)
300000e6:	3b08      	sub	r3, #8
300000e8:	681b      	ldr	r3, [r3, #0]
300000ea:	011a      	lsl	r2, r3, #4
300000ec:	680b      	ldr	r3, [r1, #0]
300000ee:	4313      	orr	r3, r2
300000f0:	6003      	str	r3, [r0, #0]
300000f2:	4b0a      	ldr	r3, [pc, #40]	(3000011c <.text+0x11c>)
300000f4:	1c18      	mov	r0, r3		(add r0, r3, #0)
300000f6:	f857f000 	bl	300001a8 <delay>
300000fa:	1f3a      	sub	r2, r7, #4
300000fc:	1f3b      	sub	r3, r7, #4
300000fe:	681b      	ldr	r3, [r3, #0]
30000100:	3301      	add	r3, #1
30000102:	6013      	str	r3, [r2, #0]
30000104:	2b09      	cmp	r3, #9
30000106:	d1d6      	bne	300000b6 <led_test+0x26>
30000108:	1f3a      	sub	r2, r7, #4
3000010a:	2300      	mov	r3, #0
3000010c:	6013      	str	r3, [r2, #0]
3000010e:	e7d2      	b	300000b6 <led_test+0x26>
30000110:	0050      	lsl	r0, r2, #1
30000112:	5600      	ldrsb	r0, [r0, r0]
30000114:	c0ff      	stmia	r0!,{r0, r1, r2, r3, r4, r5, r6, r7}
30000116:	ffff      	second half of BL instruction 0xffff
30000118:	0054      	lsl	r4, r2, #1
3000011a:	5600      	ldrsb	r0, [r0, r0]
3000011c:	86a0      	strh	r0, [r4, #52]
3000011e:	0001      	lsl	r1, r0, #0

30000120 <led_on>:
30000120:	b580      	push	{r7, lr}
30000122:	466f      	mov	r7, sp
30000124:	b082      	sub	sp, #8
30000126:	1f3b      	sub	r3, r7, #4
30000128:	6018      	str	r0, [r3, #0]
3000012a:	1f3b      	sub	r3, r7, #4
3000012c:	681b      	ldr	r3, [r3, #0]
3000012e:	2208      	mov	r2, #8
30000130:	4252      	neg	r2, r2
30000132:	19d2      	add	r2, r2, r7
30000134:	6013      	str	r3, [r2, #0]
30000136:	2308      	mov	r3, #8
30000138:	425b      	neg	r3, r3
3000013a:	19db      	add	r3, r3, r7
3000013c:	681b      	ldr	r3, [r3, #0]
3000013e:	2b05      	cmp	r3, #5
30000140:	d018      	beq	30000174 <led_on+0x54>
30000142:	2208      	mov	r2, #8
30000144:	4252      	neg	r2, r2
30000146:	19d2      	add	r2, r2, r7
30000148:	6812      	ldr	r2, [r2, #0]
3000014a:	2a05      	cmp	r2, #5
3000014c:	dc06      	bgt	3000015c <led_on+0x3c>
3000014e:	2308      	mov	r3, #8
30000150:	425b      	neg	r3, r3
30000152:	19db      	add	r3, r3, r7
30000154:	681b      	ldr	r3, [r3, #0]
30000156:	2b04      	cmp	r3, #4
30000158:	d007      	beq	3000016a <led_on+0x4a>
3000015a:	e015      	b	30000188 <led_on+0x68>
3000015c:	2208      	mov	r2, #8
3000015e:	4252      	neg	r2, r2
30000160:	19d2      	add	r2, r2, r7
30000162:	6812      	ldr	r2, [r2, #0]
30000164:	2a06      	cmp	r2, #6
30000166:	d00a      	beq	3000017e <led_on+0x5e>
30000168:	e00e      	b	30000188 <led_on+0x68>
3000016a:	4a0d      	ldr	r2, [pc, #52]	(300001a0 <.text+0x1a0>)
3000016c:	2380      	mov	r3, #128
3000016e:	005b      	lsl	r3, r3, #1
30000170:	6013      	str	r3, [r2, #0]
30000172:	e00d      	b	30000190 <led_on+0x70>
30000174:	4a0a      	ldr	r2, [pc, #40]	(300001a0 <.text+0x1a0>)
30000176:	2380      	mov	r3, #128
30000178:	00db      	lsl	r3, r3, #3
3000017a:	6013      	str	r3, [r2, #0]
3000017c:	e008      	b	30000190 <led_on+0x70>
3000017e:	4a08      	ldr	r2, [pc, #32]	(300001a0 <.text+0x1a0>)
30000180:	2380      	mov	r3, #128
30000182:	015b      	lsl	r3, r3, #5
30000184:	6013      	str	r3, [r2, #0]
30000186:	e003      	b	30000190 <led_on+0x70>
30000188:	4a05      	ldr	r2, [pc, #20]	(300001a0 <.text+0x1a0>)
3000018a:	2380      	mov	r3, #128
3000018c:	005b      	lsl	r3, r3, #1
3000018e:	6013      	str	r3, [r2, #0]
30000190:	4b04      	ldr	r3, [pc, #16]	(300001a4 <.text+0x1a4>)
30000192:	2200      	mov	r2, #0
30000194:	601a      	str	r2, [r3, #0]
30000196:	2300      	mov	r3, #0
30000198:	1c18      	mov	r0, r3		(add r0, r3, #0)
3000019a:	46bd      	mov	sp, r7
3000019c:	bd80      	pop	{r7, pc}
3000019e:	0000      	lsl	r0, r0, #0
300001a0:	0050      	lsl	r0, r2, #1
300001a2:	5600      	ldrsb	r0, [r0, r0]
300001a4:	0054      	lsl	r4, r2, #1
300001a6:	5600      	ldrsb	r0, [r0, r0]

300001a8 <delay>:
300001a8:	b580      	push	{r7, lr}
300001aa:	466f      	mov	r7, sp
300001ac:	b081      	sub	sp, #4
300001ae:	1f3b      	sub	r3, r7, #4
300001b0:	6018      	str	r0, [r3, #0]
300001b2:	1f3a      	sub	r2, r7, #4
300001b4:	1f3b      	sub	r3, r7, #4
300001b6:	681b      	ldr	r3, [r3, #0]
300001b8:	3b01      	sub	r3, #1
300001ba:	6013      	str	r3, [r2, #0]
300001bc:	6813      	ldr	r3, [r2, #0]
300001be:	3301      	add	r3, #1
300001c0:	d000      	beq	300001c4 <delay+0x1c>
300001c2:	e7f6      	b	300001b2 <delay+0xa>
300001c4:	46bd      	mov	sp, r7
300001c6:	bd80      	pop	{r7, pc}

300001c8 <uart0_init>:
300001c8:	b580      	push	{r7, lr}
300001ca:	466f      	mov	r7, sp
300001cc:	490f      	ldr	r1, [pc, #60]	(3000020c <.text+0x20c>)
300001ce:	4b0f      	ldr	r3, [pc, #60]	(3000020c <.text+0x20c>)
300001d0:	681a      	ldr	r2, [r3, #0]
300001d2:	23f0      	mov	r3, #240
300001d4:	439a      	bic	r2, r3
300001d6:	1c13      	mov	r3, r2		(add r3, r2, #0)
300001d8:	600b      	str	r3, [r1, #0]
300001da:	490c      	ldr	r1, [pc, #48]	(3000020c <.text+0x20c>)
300001dc:	4b0b      	ldr	r3, [pc, #44]	(3000020c <.text+0x20c>)
300001de:	681a      	ldr	r2, [r3, #0]
300001e0:	23a0      	mov	r3, #160
300001e2:	4313      	orr	r3, r2
300001e4:	600b      	str	r3, [r1, #0]
300001e6:	490a      	ldr	r1, [pc, #40]	(30000210 <.text+0x210>)
300001e8:	4b09      	ldr	r3, [pc, #36]	(30000210 <.text+0x210>)
300001ea:	681a      	ldr	r2, [r3, #0]
300001ec:	230c      	mov	r3, #12
300001ee:	439a      	bic	r2, r3
300001f0:	1c13      	mov	r3, r2		(add r3, r2, #0)
300001f2:	600b      	str	r3, [r1, #0]
300001f4:	4a07      	ldr	r2, [pc, #28]	(30000214 <.text+0x214>)
300001f6:	2305      	mov	r3, #5
300001f8:	6013      	str	r3, [r2, #0]
300001fa:	4a07      	ldr	r2, [pc, #28]	(30000218 <.text+0x218>)
300001fc:	231a      	mov	r3, #26
300001fe:	6013      	str	r3, [r2, #0]
30000200:	23a0      	mov	r3, #160
30000202:	05db      	lsl	r3, r3, #23
30000204:	2203      	mov	r2, #3
30000206:	601a      	str	r2, [r3, #0]
30000208:	46bd      	mov	sp, r7
3000020a:	bd80      	pop	{r7, pc}
3000020c:	0070      	lsl	r0, r6, #1
3000020e:	5600      	ldrsb	r0, [r0, r0]
30000210:	0078      	lsl	r0, r7, #1
30000212:	5600      	ldrsb	r0, [r0, r0]
30000214:	0004      	lsl	r4, r0, #0
30000216:	5000      	str	r0, [r0, r0]
30000218:	0028      	lsl	r0, r5, #0
3000021a:	5000      	str	r0, [r0, r0]

3000021c <putchar>:
3000021c:	b580      	push	{r7, lr}
3000021e:	466f      	mov	r7, sp
30000220:	b081      	sub	sp, #4
30000222:	1f3b      	sub	r3, r7, #4
30000224:	6018      	str	r0, [r3, #0]
30000226:	4b08      	ldr	r3, [pc, #32]	(30000248 <.text+0x248>)
30000228:	681a      	ldr	r2, [r3, #0]
3000022a:	2304      	mov	r3, #4
3000022c:	4013      	and	r3, r2
3000022e:	2b00      	cmp	r3, #0
30000230:	d100      	bne	30000234 <putchar+0x18>
30000232:	e7f8      	b	30000226 <putchar+0xa>
30000234:	4a05      	ldr	r2, [pc, #20]	(3000024c <.text+0x24c>)
30000236:	1f3b      	sub	r3, r7, #4
30000238:	681b      	ldr	r3, [r3, #0]
3000023a:	7013      	strb	r3, [r2, #0]
3000023c:	1f3b      	sub	r3, r7, #4
3000023e:	681b      	ldr	r3, [r3, #0]
30000240:	1c18      	mov	r0, r3		(add r0, r3, #0)
30000242:	46bd      	mov	sp, r7
30000244:	bd80      	pop	{r7, pc}
30000246:	0000      	lsl	r0, r0, #0
30000248:	0010      	lsl	r0, r2, #0
3000024a:	5000      	str	r0, [r0, r0]
3000024c:	0020      	lsl	r0, r4, #0
3000024e:	5000      	str	r0, [r0, r0]

30000250 <getchar>:
30000250:	b580      	push	{r7, lr}
30000252:	466f      	mov	r7, sp
30000254:	4b06      	ldr	r3, [pc, #24]	(30000270 <.text+0x270>)
30000256:	681a      	ldr	r2, [r3, #0]
30000258:	2301      	mov	r3, #1
3000025a:	4013      	and	r3, r2
3000025c:	2b00      	cmp	r3, #0
3000025e:	d100      	bne	30000262 <getchar+0x12>
30000260:	e7f8      	b	30000254 <getchar+0x4>
30000262:	4b04      	ldr	r3, [pc, #16]	(30000274 <.text+0x274>)
30000264:	781b      	ldrb	r3, [r3, #0]
30000266:	061b      	lsl	r3, r3, #24
30000268:	0e1b      	lsr	r3, r3, #24
3000026a:	1c18      	mov	r0, r3		(add r0, r3, #0)
3000026c:	46bd      	mov	sp, r7
3000026e:	bd80      	pop	{r7, pc}
30000270:	0010      	lsl	r0, r2, #0
30000272:	5000      	str	r0, [r0, r0]
30000274:	0024      	lsl	r4, r4, #0
30000276:	5000      	str	r0, [r0, r0]

30000278 <puts>:
30000278:	b580      	push	{r7, lr}
3000027a:	466f      	mov	r7, sp
3000027c:	b081      	sub	sp, #4
3000027e:	1f3b      	sub	r3, r7, #4
30000280:	6018      	str	r0, [r3, #0]
30000282:	1f3b      	sub	r3, r7, #4
30000284:	681b      	ldr	r3, [r3, #0]
30000286:	781b      	ldrb	r3, [r3, #0]
30000288:	2b00      	cmp	r3, #0
3000028a:	d00b      	beq	300002a4 <puts+0x2c>
3000028c:	1f3b      	sub	r3, r7, #4
3000028e:	681b      	ldr	r3, [r3, #0]
30000290:	781b      	ldrb	r3, [r3, #0]
30000292:	1c18      	mov	r0, r3		(add r0, r3, #0)
30000294:	ffc2f7ff 	bl	3000021c <putchar>
30000298:	1f3a      	sub	r2, r7, #4
3000029a:	1f3b      	sub	r3, r7, #4
3000029c:	681b      	ldr	r3, [r3, #0]
3000029e:	3301      	add	r3, #1
300002a0:	6013      	str	r3, [r2, #0]
300002a2:	e7ee      	b	30000282 <puts+0xa>
300002a4:	2300      	mov	r3, #0
300002a6:	1c18      	mov	r0, r3		(add r0, r3, #0)
300002a8:	46bd      	mov	sp, r7
300002aa:	bd80      	pop	{r7, pc}

300002ac <printHex>:
300002ac:	b580      	push	{r7, lr}
300002ae:	466f      	mov	r7, sp
300002b0:	b084      	sub	sp, #16
300002b2:	1f3b      	sub	r3, r7, #4
300002b4:	6018      	str	r0, [r3, #0]
300002b6:	1c3a      	mov	r2, r7		(add r2, r7, #0)
300002b8:	3a08      	sub	r2, #8
300002ba:	2300      	mov	r3, #0
300002bc:	6013      	str	r3, [r2, #0]
300002be:	1c3b      	mov	r3, r7		(add r3, r7, #0)
300002c0:	3b08      	sub	r3, #8
300002c2:	681b      	ldr	r3, [r3, #0]
300002c4:	2b07      	cmp	r3, #7
300002c6:	dc18      	bgt	300002fa <printHex+0x4e>
300002c8:	1c3a      	mov	r2, r7		(add r2, r7, #0)
300002ca:	3a10      	sub	r2, #16
300002cc:	1c3b      	mov	r3, r7		(add r3, r7, #0)
300002ce:	3b08      	sub	r3, #8
300002d0:	681b      	ldr	r3, [r3, #0]
300002d2:	18d1      	add	r1, r2, r3
300002d4:	1f3b      	sub	r3, r7, #4
300002d6:	681b      	ldr	r3, [r3, #0]
300002d8:	1c1a      	mov	r2, r3		(add r2, r3, #0)
300002da:	230f      	mov	r3, #15
300002dc:	4013      	and	r3, r2
300002de:	700b      	strb	r3, [r1, #0]
300002e0:	1f3a      	sub	r2, r7, #4
300002e2:	1f3b      	sub	r3, r7, #4
300002e4:	681b      	ldr	r3, [r3, #0]
300002e6:	091b      	lsr	r3, r3, #4
300002e8:	6013      	str	r3, [r2, #0]
300002ea:	1c3a      	mov	r2, r7		(add r2, r7, #0)
300002ec:	3a08      	sub	r2, #8
300002ee:	1c3b      	mov	r3, r7		(add r3, r7, #0)
300002f0:	3b08      	sub	r3, #8
300002f2:	681b      	ldr	r3, [r3, #0]
300002f4:	3301      	add	r3, #1
300002f6:	6013      	str	r3, [r2, #0]
300002f8:	e7e1      	b	300002be <printHex+0x12>
300002fa:	4b30      	ldr	r3, [pc, #192]	(300003bc <.text+0x3bc>)
300002fc:	1c18      	mov	r0, r3		(add r0, r3, #0)
300002fe:	ffbbf7ff 	bl	30000278 <puts>
30000302:	1c3a      	mov	r2, r7		(add r2, r7, #0)
30000304:	3a08      	sub	r2, #8
30000306:	2307      	mov	r3, #7
30000308:	6013      	str	r3, [r2, #0]
3000030a:	1c3b      	mov	r3, r7		(add r3, r7, #0)
3000030c:	3b08      	sub	r3, #8
3000030e:	681b      	ldr	r3, [r3, #0]
30000310:	2b00      	cmp	r3, #0
30000312:	db4e      	blt	300003b2 <printHex+0x106>
30000314:	1c3a      	mov	r2, r7		(add r2, r7, #0)
30000316:	3a10      	sub	r2, #16
30000318:	1c3b      	mov	r3, r7		(add r3, r7, #0)
3000031a:	3b08      	sub	r3, #8
3000031c:	681b      	ldr	r3, [r3, #0]
3000031e:	18d3      	add	r3, r2, r3
30000320:	781b      	ldrb	r3, [r3, #0]
30000322:	061b      	lsl	r3, r3, #24
30000324:	161b      	asr	r3, r3, #24
30000326:	2b00      	cmp	r3, #0
30000328:	db18      	blt	3000035c <printHex+0xb0>
3000032a:	1c3a      	mov	r2, r7		(add r2, r7, #0)
3000032c:	3a10      	sub	r2, #16
3000032e:	1c3b      	mov	r3, r7		(add r3, r7, #0)
30000330:	3b08      	sub	r3, #8
30000332:	681b      	ldr	r3, [r3, #0]
30000334:	18d3      	add	r3, r2, r3
30000336:	781b      	ldrb	r3, [r3, #0]
30000338:	061b      	lsl	r3, r3, #24
3000033a:	161b      	asr	r3, r3, #24
3000033c:	2b09      	cmp	r3, #9
3000033e:	dc0d      	bgt	3000035c <printHex+0xb0>
30000340:	1c3a      	mov	r2, r7		(add r2, r7, #0)
30000342:	3a10      	sub	r2, #16
30000344:	1c3b      	mov	r3, r7		(add r3, r7, #0)
30000346:	3b08      	sub	r3, #8
30000348:	681b      	ldr	r3, [r3, #0]
3000034a:	18d3      	add	r3, r2, r3
3000034c:	781b      	ldrb	r3, [r3, #0]
3000034e:	061b      	lsl	r3, r3, #24
30000350:	161b      	asr	r3, r3, #24
30000352:	3330      	add	r3, #48
30000354:	1c18      	mov	r0, r3		(add r0, r3, #0)
30000356:	ff61f7ff 	bl	3000021c <putchar>
3000035a:	e022      	b	300003a2 <printHex+0xf6>
3000035c:	1c3a      	mov	r2, r7		(add r2, r7, #0)
3000035e:	3a10      	sub	r2, #16
30000360:	1c3b      	mov	r3, r7		(add r3, r7, #0)
30000362:	3b08      	sub	r3, #8
30000364:	681b      	ldr	r3, [r3, #0]
30000366:	18d3      	add	r3, r2, r3
30000368:	781b      	ldrb	r3, [r3, #0]
3000036a:	061b      	lsl	r3, r3, #24
3000036c:	161b      	asr	r3, r3, #24
3000036e:	2b09      	cmp	r3, #9
30000370:	dd17      	ble	300003a2 <printHex+0xf6>
30000372:	1c3a      	mov	r2, r7		(add r2, r7, #0)
30000374:	3a10      	sub	r2, #16
30000376:	1c3b      	mov	r3, r7		(add r3, r7, #0)
30000378:	3b08      	sub	r3, #8
3000037a:	681b      	ldr	r3, [r3, #0]
3000037c:	18d3      	add	r3, r2, r3
3000037e:	781b      	ldrb	r3, [r3, #0]
30000380:	061b      	lsl	r3, r3, #24
30000382:	161b      	asr	r3, r3, #24
30000384:	2b0f      	cmp	r3, #15
30000386:	dc0c      	bgt	300003a2 <printHex+0xf6>
30000388:	1c3a      	mov	r2, r7		(add r2, r7, #0)
3000038a:	3a10      	sub	r2, #16
3000038c:	1c3b      	mov	r3, r7		(add r3, r7, #0)
3000038e:	3b08      	sub	r3, #8
30000390:	681b      	ldr	r3, [r3, #0]
30000392:	18d3      	add	r3, r2, r3
30000394:	781b      	ldrb	r3, [r3, #0]
30000396:	061b      	lsl	r3, r3, #24
30000398:	161b      	asr	r3, r3, #24
3000039a:	3337      	add	r3, #55
3000039c:	1c18      	mov	r0, r3		(add r0, r3, #0)
3000039e:	ff3df7ff 	bl	3000021c <putchar>
300003a2:	1c3a      	mov	r2, r7		(add r2, r7, #0)
300003a4:	3a08      	sub	r2, #8
300003a6:	1c3b      	mov	r3, r7		(add r3, r7, #0)
300003a8:	3b08      	sub	r3, #8
300003aa:	681b      	ldr	r3, [r3, #0]
300003ac:	3b01      	sub	r3, #1
300003ae:	6013      	str	r3, [r2, #0]
300003b0:	e7ab      	b	3000030a <printHex+0x5e>
300003b2:	2300      	mov	r3, #0
300003b4:	1c18      	mov	r0, r3		(add r0, r3, #0)
300003b6:	46bd      	mov	sp, r7
300003b8:	bd80      	pop	{r7, pc}
300003ba:	0000      	lsl	r0, r0, #0
300003bc:	0604      	lsl	r4, r0, #24
300003be:	3000      	add	r0, #0

300003c0 <sdram_init>:
300003c0:	b580      	push	{r7, lr}
300003c2:	466f      	mov	r7, sp
300003c4:	2290      	mov	r2, #144
300003c6:	05d2      	lsl	r2, r2, #23
300003c8:	2388      	mov	r3, #136
300003ca:	059b      	lsl	r3, r3, #22
300003cc:	6013      	str	r3, [r2, #0]
300003ce:	4a0a      	ldr	r2, [pc, #40]	(300003f8 <.text+0x3f8>)
300003d0:	4b0a      	ldr	r3, [pc, #40]	(300003fc <.text+0x3fc>)
300003d2:	6013      	str	r3, [r2, #0]
300003d4:	4a0a      	ldr	r2, [pc, #40]	(30000400 <.text+0x400>)
300003d6:	4b09      	ldr	r3, [pc, #36]	(300003fc <.text+0x3fc>)
300003d8:	6013      	str	r3, [r2, #0]
300003da:	4a0a      	ldr	r2, [pc, #40]	(30000404 <.text+0x404>)
300003dc:	4b0a      	ldr	r3, [pc, #40]	(30000408 <.text+0x408>)
300003de:	6013      	str	r3, [r2, #0]
300003e0:	4a0a      	ldr	r2, [pc, #40]	(3000040c <.text+0x40c>)
300003e2:	23b1      	mov	r3, #177
300003e4:	6013      	str	r3, [r2, #0]
300003e6:	4a0a      	ldr	r2, [pc, #40]	(30000410 <.text+0x410>)
300003e8:	2320      	mov	r3, #32
300003ea:	6013      	str	r3, [r2, #0]
300003ec:	4a09      	ldr	r2, [pc, #36]	(30000414 <.text+0x414>)
300003ee:	2320      	mov	r3, #32
300003f0:	6013      	str	r3, [r2, #0]
300003f2:	46bd      	mov	sp, r7
300003f4:	bd80      	pop	{r7, pc}
300003f6:	0000      	lsl	r0, r0, #0
300003f8:	001c      	lsl	r4, r3, #0
300003fa:	4800      	ldr	r0, [pc, #0]	(300003fc <.text+0x3fc>)
300003fc:	8001      	strh	r1, [r0, #0]
300003fe:	0001      	lsl	r1, r0, #0
30000400:	0020      	lsl	r0, r4, #0
30000402:	4800      	ldr	r0, [pc, #0]	(30000404 <.text+0x404>)
30000404:	0024      	lsl	r4, r4, #0
30000406:	4800      	ldr	r0, [pc, #0]	(30000408 <.text+0x408>)
30000408:	04f5      	lsl	r5, r6, #19
3000040a:	0084      	lsl	r4, r0, #2
3000040c:	0028      	lsl	r0, r5, #0
3000040e:	4800      	ldr	r0, [pc, #0]	(30000410 <.text+0x410>)
30000410:	002c      	lsl	r4, r5, #0
30000412:	4800      	ldr	r0, [pc, #0]	(30000414 <.text+0x414>)
30000414:	0030      	lsl	r0, r6, #0
30000416:	4800      	ldr	r0, [pc, #0]	(30000418 <sdram_test>)

30000418 <sdram_test>:
30000418:	b580      	push	{r7, lr}
3000041a:	466f      	mov	r7, sp
3000041c:	b083      	sub	sp, #12
3000041e:	1f3a      	sub	r2, r7, #4
30000420:	23c0      	mov	r3, #192
30000422:	059b      	lsl	r3, r3, #22
30000424:	6013      	str	r3, [r2, #0]
30000426:	1c3a      	mov	r2, r7		(add r2, r7, #0)
30000428:	3a08      	sub	r2, #8
3000042a:	2300      	mov	r3, #0
3000042c:	6013      	str	r3, [r2, #0]
3000042e:	1c3b      	mov	r3, r7		(add r3, r7, #0)
30000430:	3b08      	sub	r3, #8
30000432:	681a      	ldr	r2, [r3, #0]
30000434:	4b24      	ldr	r3, [pc, #144]	(300004c8 <.text+0x4c8>)
30000436:	429a      	cmp	r2, r3
30000438:	dc0f      	bgt	3000045a <sdram_test+0x42>
3000043a:	1f3b      	sub	r3, r7, #4
3000043c:	681a      	ldr	r2, [r3, #0]
3000043e:	1c3b      	mov	r3, r7		(add r3, r7, #0)
30000440:	3b08      	sub	r3, #8
30000442:	681b      	ldr	r3, [r3, #0]
30000444:	18d2      	add	r2, r2, r3
30000446:	2355      	mov	r3, #85
30000448:	7013      	strb	r3, [r2, #0]
3000044a:	1c3a      	mov	r2, r7		(add r2, r7, #0)
3000044c:	3a08      	sub	r2, #8
3000044e:	1c3b      	mov	r3, r7		(add r3, r7, #0)
30000450:	3b08      	sub	r3, #8
30000452:	681b      	ldr	r3, [r3, #0]
30000454:	3301      	add	r3, #1
30000456:	6013      	str	r3, [r2, #0]
30000458:	e7e9      	b	3000042e <sdram_test+0x16>
3000045a:	1c3a      	mov	r2, r7		(add r2, r7, #0)
3000045c:	3a08      	sub	r2, #8
3000045e:	2300      	mov	r3, #0
30000460:	6013      	str	r3, [r2, #0]
30000462:	1c3b      	mov	r3, r7		(add r3, r7, #0)
30000464:	3b08      	sub	r3, #8
30000466:	681a      	ldr	r2, [r3, #0]
30000468:	4b17      	ldr	r3, [pc, #92]	(300004c8 <.text+0x4c8>)
3000046a:	429a      	cmp	r2, r3
3000046c:	dc21      	bgt	300004b2 <sdram_test+0x9a>
3000046e:	1f3b      	sub	r3, r7, #4
30000470:	681a      	ldr	r2, [r3, #0]
30000472:	1c3b      	mov	r3, r7		(add r3, r7, #0)
30000474:	3b08      	sub	r3, #8
30000476:	681b      	ldr	r3, [r3, #0]
30000478:	18d3      	add	r3, r2, r3
3000047a:	781b      	ldrb	r3, [r3, #0]
3000047c:	061b      	lsl	r3, r3, #24
3000047e:	0e1b      	lsr	r3, r3, #24
30000480:	2b55      	cmp	r3, #85
30000482:	d00e      	beq	300004a2 <sdram_test+0x8a>
30000484:	2201      	mov	r2, #1
30000486:	230c      	mov	r3, #12
30000488:	425b      	neg	r3, r3
3000048a:	19db      	add	r3, r3, r7
3000048c:	601a      	str	r2, [r3, #0]
3000048e:	220c      	mov	r2, #12
30000490:	4252      	neg	r2, r2
30000492:	19d2      	add	r2, r2, r7
30000494:	6812      	ldr	r2, [r2, #0]
30000496:	4252      	neg	r2, r2
30000498:	230c      	mov	r3, #12
3000049a:	425b      	neg	r3, r3
3000049c:	19db      	add	r3, r3, r7
3000049e:	601a      	str	r2, [r3, #0]
300004a0:	e00c      	b	300004bc <sdram_test+0xa4>
300004a2:	1c3a      	mov	r2, r7		(add r2, r7, #0)
300004a4:	3a08      	sub	r2, #8
300004a6:	1c3b      	mov	r3, r7		(add r3, r7, #0)
300004a8:	3b08      	sub	r3, #8
300004aa:	681b      	ldr	r3, [r3, #0]
300004ac:	3301      	add	r3, #1
300004ae:	6013      	str	r3, [r2, #0]
300004b0:	e7d7      	b	30000462 <sdram_test+0x4a>
300004b2:	2300      	mov	r3, #0
300004b4:	220c      	mov	r2, #12
300004b6:	4252      	neg	r2, r2
300004b8:	19d2      	add	r2, r2, r7
300004ba:	6013      	str	r3, [r2, #0]
300004bc:	230c      	mov	r3, #12
300004be:	425b      	neg	r3, r3
300004c0:	19db      	add	r3, r3, r7
300004c2:	6818      	ldr	r0, [r3, #0]
300004c4:	46bd      	mov	sp, r7
300004c6:	bd80      	pop	{r7, pc}
300004c8:	03e7      	lsl	r7, r4, #15
	...

300004cc <copy2sdram>:
300004cc:	b590      	push	{r4, r7, lr}
300004ce:	466f      	mov	r7, sp
300004d0:	b083      	sub	sp, #12
300004d2:	1f3a      	sub	r2, r7, #4
300004d4:	4b0f      	ldr	r3, [pc, #60]	(30000514 <.text+0x514>)
300004d6:	6013      	str	r3, [r2, #0]
300004d8:	1c3a      	mov	r2, r7		(add r2, r7, #0)
300004da:	3a08      	sub	r2, #8
300004dc:	4b0e      	ldr	r3, [pc, #56]	(30000518 <.text+0x518>)
300004de:	6013      	str	r3, [r2, #0]
300004e0:	1c3a      	mov	r2, r7		(add r2, r7, #0)
300004e2:	3a0c      	sub	r2, #12
300004e4:	2300      	mov	r3, #0
300004e6:	6013      	str	r3, [r2, #0]
300004e8:	1f3b      	sub	r3, r7, #4
300004ea:	1c3a      	mov	r2, r7		(add r2, r7, #0)
300004ec:	3a08      	sub	r2, #8
300004ee:	6819      	ldr	r1, [r3, #0]
300004f0:	6813      	ldr	r3, [r2, #0]
300004f2:	4299      	cmp	r1, r3
300004f4:	d20c      	bcs	30000510 <copy2sdram+0x44>
300004f6:	1f3c      	sub	r4, r7, #4
300004f8:	6822      	ldr	r2, [r4, #0]
300004fa:	1c39      	mov	r1, r7		(add r1, r7, #0)
300004fc:	390c      	sub	r1, #12
300004fe:	680b      	ldr	r3, [r1, #0]
30000500:	6818      	ldr	r0, [r3, #0]
30000502:	3304      	add	r3, #4
30000504:	600b      	str	r3, [r1, #0]
30000506:	1c13      	mov	r3, r2		(add r3, r2, #0)
30000508:	6018      	str	r0, [r3, #0]
3000050a:	3204      	add	r2, #4
3000050c:	6022      	str	r2, [r4, #0]
3000050e:	e7eb      	b	300004e8 <copy2sdram+0x1c>
30000510:	46bd      	mov	sp, r7
30000512:	bd90      	pop	{r4, r7, pc}
30000514:	0000      	lsl	r0, r0, #0
30000516:	3000      	add	r0, #0
30000518:	0628      	lsl	r0, r5, #24
3000051a:	3000      	add	r0, #0

3000051c <clean_bss>:
3000051c:	b580      	push	{r7, lr}
3000051e:	466f      	mov	r7, sp
30000520:	b082      	sub	sp, #8
30000522:	1f3a      	sub	r2, r7, #4
30000524:	4b0b      	ldr	r3, [pc, #44]	(30000554 <.text+0x554>)
30000526:	6013      	str	r3, [r2, #0]
30000528:	1c3a      	mov	r2, r7		(add r2, r7, #0)
3000052a:	3a08      	sub	r2, #8
3000052c:	4b0a      	ldr	r3, [pc, #40]	(30000558 <.text+0x558>)
3000052e:	6013      	str	r3, [r2, #0]
30000530:	1f3b      	sub	r3, r7, #4
30000532:	1c3a      	mov	r2, r7		(add r2, r7, #0)
30000534:	3a08      	sub	r2, #8
30000536:	6819      	ldr	r1, [r3, #0]
30000538:	6813      	ldr	r3, [r2, #0]
3000053a:	4299      	cmp	r1, r3
3000053c:	d807      	bhi	3000054e <clean_bss+0x32>
3000053e:	1f38      	sub	r0, r7, #4
30000540:	6803      	ldr	r3, [r0, #0]
30000542:	1c19      	mov	r1, r3		(add r1, r3, #0)
30000544:	2200      	mov	r2, #0
30000546:	600a      	str	r2, [r1, #0]
30000548:	3304      	add	r3, #4
3000054a:	6003      	str	r3, [r0, #0]
3000054c:	e7f0      	b	30000530 <clean_bss+0x14>
3000054e:	46bd      	mov	sp, r7
30000550:	bd80      	pop	{r7, pc}
30000552:	0000      	lsl	r0, r0, #0
30000554:	0628      	lsl	r0, r5, #24
30000556:	3000      	add	r0, #0
30000558:	062c      	lsl	r4, r5, #24
3000055a:	3000      	add	r0, #0

3000055c <main>:
3000055c:	b580      	push	{r7, lr}
3000055e:	466f      	mov	r7, sp
30000560:	fe32f7ff 	bl	300001c8 <uart0_init>
30000564:	4b1f      	ldr	r3, [pc, #124]	(300005e4 <.text+0x5e4>)
30000566:	1c18      	mov	r0, r3		(add r0, r3, #0)
30000568:	fe86f7ff 	bl	30000278 <puts>
3000056c:	4b1e      	ldr	r3, [pc, #120]	(300005e8 <.text+0x5e8>)
3000056e:	681b      	ldr	r3, [r3, #0]
30000570:	1c18      	mov	r0, r3		(add r0, r3, #0)
30000572:	fe9bf7ff 	bl	300002ac <printHex>
30000576:	4b1d      	ldr	r3, [pc, #116]	(300005ec <.text+0x5ec>)
30000578:	1c18      	mov	r0, r3		(add r0, r3, #0)
3000057a:	fe7df7ff 	bl	30000278 <puts>
3000057e:	4b19      	ldr	r3, [pc, #100]	(300005e4 <.text+0x5e4>)
30000580:	1c18      	mov	r0, r3		(add r0, r3, #0)
30000582:	fe79f7ff 	bl	30000278 <puts>
30000586:	4b1a      	ldr	r3, [pc, #104]	(300005f0 <.text+0x5f0>)
30000588:	781b      	ldrb	r3, [r3, #0]
3000058a:	1c18      	mov	r0, r3		(add r0, r3, #0)
3000058c:	fe8ef7ff 	bl	300002ac <printHex>
30000590:	4b16      	ldr	r3, [pc, #88]	(300005ec <.text+0x5ec>)
30000592:	1c18      	mov	r0, r3		(add r0, r3, #0)
30000594:	fe70f7ff 	bl	30000278 <puts>
30000598:	4b12      	ldr	r3, [pc, #72]	(300005e4 <.text+0x5e4>)
3000059a:	1c18      	mov	r0, r3		(add r0, r3, #0)
3000059c:	fe6cf7ff 	bl	30000278 <puts>
300005a0:	4b14      	ldr	r3, [pc, #80]	(300005f4 <.text+0x5f4>)
300005a2:	681b      	ldr	r3, [r3, #0]
300005a4:	1c18      	mov	r0, r3		(add r0, r3, #0)
300005a6:	fe81f7ff 	bl	300002ac <printHex>
300005aa:	4b10      	ldr	r3, [pc, #64]	(300005ec <.text+0x5ec>)
300005ac:	1c18      	mov	r0, r3		(add r0, r3, #0)
300005ae:	fe63f7ff 	bl	30000278 <puts>
300005b2:	4b11      	ldr	r3, [pc, #68]	(300005f8 <.text+0x5f8>)
300005b4:	781b      	ldrb	r3, [r3, #0]
300005b6:	1c18      	mov	r0, r3		(add r0, r3, #0)
300005b8:	fe30f7ff 	bl	3000021c <putchar>
300005bc:	4a0e      	ldr	r2, [pc, #56]	(300005f8 <.text+0x5f8>)
300005be:	4b0e      	ldr	r3, [pc, #56]	(300005f8 <.text+0x5f8>)
300005c0:	781b      	ldrb	r3, [r3, #0]
300005c2:	3301      	add	r3, #1
300005c4:	7013      	strb	r3, [r2, #0]
300005c6:	4b0d      	ldr	r3, [pc, #52]	(300005fc <.text+0x5fc>)
300005c8:	781b      	ldrb	r3, [r3, #0]
300005ca:	1c18      	mov	r0, r3		(add r0, r3, #0)
300005cc:	fe26f7ff 	bl	3000021c <putchar>
300005d0:	4a0a      	ldr	r2, [pc, #40]	(300005fc <.text+0x5fc>)
300005d2:	4b0a      	ldr	r3, [pc, #40]	(300005fc <.text+0x5fc>)
300005d4:	781b      	ldrb	r3, [r3, #0]
300005d6:	3301      	add	r3, #1
300005d8:	7013      	strb	r3, [r2, #0]
300005da:	4b09      	ldr	r3, [pc, #36]	(30000600 <.text+0x600>)
300005dc:	1c18      	mov	r0, r3		(add r0, r3, #0)
300005de:	fde3f7ff 	bl	300001a8 <delay>
300005e2:	e7e6      	b	300005b2 <main+0x56>
300005e4:	0610      	lsl	r0, r2, #24
300005e6:	3000      	add	r0, #0
300005e8:	0628      	lsl	r0, r5, #24
300005ea:	3000      	add	r0, #0
300005ec:	061c      	lsl	r4, r3, #24
300005ee:	3000      	add	r0, #0
300005f0:	0608      	lsl	r0, r1, #24
300005f2:	3000      	add	r0, #0
300005f4:	060c      	lsl	r4, r1, #24
300005f6:	3000      	add	r0, #0
300005f8:	0620      	lsl	r0, r4, #24
300005fa:	3000      	add	r0, #0
300005fc:	0621      	lsl	r1, r4, #24
300005fe:	3000      	add	r0, #0
30000600:	4240      	neg	r0, r0
30000602:	000f      	lsl	r7, r1, #0
Disassembly of section .rodata:

30000604 <__rodata_start>:
30000604:	00007830 	andeq	r7, r0, r0, lsr r8

30000608 <g_Char2>:
30000608:	00000042 	andeq	r0, r0, r2, asr #32

3000060c <g_Char4>:
3000060c:	00002710 	andeq	r2, r0, r0, lsl r7
30000610:	5f670a0d 	swipl	0x00670a0d
30000614:	203d2041 	eorcss	r2, sp, r1, asr #32
30000618:	00000000 	andeq	r0, r0, r0
3000061c:	00000a0d 	andeq	r0, r0, sp, lsl #20
Disassembly of section .data:

30000620 <__data_start>:
30000620:	00006141 	andeq	r6, r0, r1, asr #2

30000621 <g_Char3>:
30000621:	60000061 	andvs	r0, r0, r1, rrx

30000624 <g_Char5>:
30000624:	0000ea60 	andeq	lr, r0, r0, ror #20
Disassembly of section .bss:

30000628 <__bss_start>:
30000628:	00000000 	andeq	r0, r0, r0

3000062c <_bss_end>:
3000062c:	00000000 	andeq	r0, r0, r0
Disassembly of section .comment:

00000000 <.comment>:
   0:	43434700 	cmpmi	r3, #0	; 0x0
   4:	4728203a 	undefined
   8:	2029554e 	eorcs	r5, r9, lr, asr #10
   c:	2e342e33 	mrccs	14, 1, r2, cr4, cr3, {1}
  10:	47000035 	smladxmi	r0, r5, r0, r0
  14:	203a4343 	eorcss	r4, sl, r3, asr #6
  18:	554e4728 	strplb	r4, [lr, #-1832]
  1c:	2e332029 	cdpcs	0, 3, cr2, cr3, cr9, {1}
  20:	00352e34 	eoreqs	r2, r5, r4, lsr lr
  24:	43434700 	cmpmi	r3, #0	; 0x0
  28:	4728203a 	undefined
  2c:	2029554e 	eorcs	r5, r9, lr, asr #10
  30:	2e342e33 	mrccs	14, 1, r2, cr4, cr3, {1}
  34:	47000035 	smladxmi	r0, r5, r0, r0
  38:	203a4343 	eorcss	r4, sl, r3, asr #6
  3c:	554e4728 	strplb	r4, [lr, #-1832]
  40:	2e332029 	cdpcs	0, 3, cr2, cr3, cr9, {1}
  44:	00352e34 	eoreqs	r2, r5, r4, lsr lr
